Certificate:
    Data:
        Version: 1 (0x0)
        Serial Number: 4097 (0x1001)
        Signature Algorithm: sha512WithRSAEncryption
        Issuer: C=ts, ST=ms, L=js, O=jsjs, OU=jsjsj, CN=jshsjhs/emailAddress=ksjksj@hsjsj.com
        Validity
            Not Before: Dec  3 16:03:44 2023 GMT
            Not After : Dec  1 16:03:44 2028 GMT
        Subject: C=US, ST=MyState, L=MyCity, O=MyOrganization, CN=test2.test.local
        Subject Public Key Info:
            Public Key Algorithm: rsaEncryption
                Public-Key: (2048 bit)
                Modulus:
                    00:c7:03:f1:09:41:30:6c:21:f4:93:ad:1f:fd:b8:
                    46:4e:76:32:c2:b8:e0:b3:ca:e2:66:72:22:fc:68:
                    89:c7:83:39:b5:4e:f9:cc:16:4d:24:60:3f:d3:1a:
                    45:79:fe:4a:77:0e:b0:e0:36:e5:41:09:ba:f6:9f:
                    60:5f:ee:14:15:24:c1:71:6c:42:5b:2c:01:6d:96:
                    f7:0c:ee:7b:7e:a3:bc:bf:1f:88:5c:1b:a2:8b:3f:
                    43:57:ba:93:1e:f0:55:e1:77:a8:4e:db:ca:fa:54:
                    72:de:47:df:1d:e9:83:75:af:c3:c4:59:8d:53:25:
                    36:4e:84:28:bc:a1:df:67:53:ea:e7:6a:f0:c6:f1:
                    a7:36:a2:b3:c5:f5:94:80:d1:63:f7:6b:1b:5a:cb:
                    9a:9c:a3:a4:6a:3f:7b:53:68:31:f2:c4:c1:1f:9e:
                    6d:f7:6b:7a:90:66:2c:22:61:07:96:24:db:62:df:
                    77:de:19:7b:db:5b:d3:65:01:a7:82:bf:13:c2:d0:
                    19:33:80:74:ae:71:94:82:bb:7c:37:a4:42:91:47:
                    3a:50:a0:21:c9:06:81:8b:2e:cb:f4:0a:82:9d:7b:
                    24:3d:ca:8c:eb:aa:df:19:af:44:a0:46:1a:f2:be:
                    93:e2:a2:83:31:3a:86:8b:93:ad:8a:e5:32:7f:85:
                    af:83
                Exponent: 65537 (0x10001)
    Signature Algorithm: sha512WithRSAEncryption
    Signature Value:
        63:8b:a5:dc:23:82:57:be:f6:56:b6:6a:f7:eb:38:91:c3:a5:
        e1:f9:a9:40:33:7a:cc:8e:e5:6a:59:ac:29:cd:08:56:12:7d:
        70:f4:2f:d0:da:13:12:2e:48:0e:d5:ad:c6:00:21:aa:b0:9a:
        b6:c0:5a:9c:89:47:e7:47:1d:24:56:22:65:75:93:e3:90:4b:
        88:7c:d7:f6:4d:fc:f1:7b:5c:10:3e:bb:91:7f:13:36:15:61:
        10:74:51:52:c0:be:32:58:9b:27:4b:3b:10:30:6a:ff:88:21:
        1b:50:df:65:b8:d5:4d:f1:1d:e6:4d:30:1e:9d:33:02:ea:1d:
        88:63:f7:06:3a:ce:0c:4f:78:23:91:da:95:40:38:d4:59:85:
        63:7a:19:b4:28:c6:f1:f6:74:c3:b6:42:e5:3a:77:69:10:f7:
        49:ab:a2:3e:39:cb:ef:1d:5d:b5:33:d0:7c:64:95:5e:9e:aa:
        99:d3:19:18:e9:45:bf:4a:91:ef:7c:19:03:c1:c2:e2:c9:54:
        1d:c5:b9:f6:cf:be:37:47:fc:fc:e0:14:0b:5a:83:78:ea:d2:
        e7:78:b6:0f:92:35:67:74:92:5b:d5:ce:47:8c:86:cf:17:88:
        d5:8b:ab:77:9a:ee:4e:9c:55:7d:aa:2b:78:23:b8:5d:65:7e:
        61:98:42:b6:aa:0c:49:6f:5b:05:3c:b2:87:46:5b:15:82:f2:
        1a:be:12:1f:39:cb:e0:b8:1f:41:74:f3:de:1b:f9:8c:74:9f:
        c7:37:e3:44:6b:54:d3:41:f7:84:8e:8f:c2:0a:fb:d6:19:b5:
        0f:bb:95:e0:e3:70:15:8f:fd:07:62:9a:52:7a:4a:43:8a:97:
        08:f8:0e:bd:9d:6a:b5:a0:55:72:2a:5e:59:c4:b5:f9:88:0c:
        b6:e3:55:77:46:ee:93:d2:ac:76:42:17:9c:46:2b:03:31:90:
        a5:fd:59:ec:48:1b:0f:70:88:74:38:46:b8:0e:f1:e1:d3:2c:
        c7:0a:0e:40:2e:9a:6f:f8:00:65:5f:16:32:56:74:60:1a:f6:
        e6:ad:23:de:fa:28:1f:4a:f4:e7:c2:8e:96:67:69:30:a8:e6:
        4b:50:16:d1:96:aa:21:17:78:22:6c:e1:77:ae:de:32:35:1f:
        6f:e2:f1:52:7a:68:c5:c2:1b:2e:ec:68:bd:90:c1:53:fa:c5:
        21:d9:f0:91:35:71:c2:8d:38:0b:de:2f:62:bd:63:bf:4a:a7:
        db:17:00:d1:fa:44:bb:eb:b6:0b:fa:f5:f1:e9:42:aa:ef:54:
        a1:84:78:ea:a4:d6:37:e0:e0:f4:a7:65:b3:b5:69:65:6b:d8:
        90:7d:36:c5:f0:00:bb:7e
-----BEGIN CERTIFICATE-----
MIIEUjCCAjoCAhABMA0GCSqGSIb3DQEBDQUAMHkxCzAJBgNVBAYTAnRzMQswCQYD
VQQIDAJtczELMAkGA1UEBwwCanMxDTALBgNVBAoMBGpzanMxDjAMBgNVBAsMBWpz
anNqMRAwDgYDVQQDDAdqc2hzamhzMR8wHQYJKoZIhvcNAQkBFhBrc2prc2pAaHNq
c2ouY29tMB4XDTIzMTIwMzE2MDM0NFoXDTI4MTIwMTE2MDM0NFowZDELMAkGA1UE
BhMCVVMxEDAOBgNVBAgMB015U3RhdGUxDzANBgNVBAcMBk15Q2l0eTEXMBUGA1UE
CgwOTXlPcmdhbml6YXRpb24xGTAXBgNVBAMMEHRlc3QyLnRlc3QubG9jYWwwggEi
MA0GCSqGSIb3DQEBAQUAA4IBDwAwggEKAoIBAQDHA/EJQTBsIfSTrR/9uEZOdjLC
uOCzyuJmciL8aInHgzm1TvnMFk0kYD/TGkV5/kp3DrDgNuVBCbr2n2Bf7hQVJMFx
bEJbLAFtlvcM7nt+o7y/H4hcG6KLP0NXupMe8FXhd6hO28r6VHLeR98d6YN1r8PE
WY1TJTZOhCi8od9nU+rnavDG8ac2orPF9ZSA0WP3axtay5qco6RqP3tTaDHyxMEf
nm33a3qQZiwiYQeWJNti33feGXvbW9NlAaeCvxPC0BkzgHSucZSCu3w3pEKRRzpQ
oCHJBoGLLsv0CoKdeyQ9yozrqt8Zr0SgRhryvpPiooMxOoaLk62K5TJ/ha+DAgMB
AAEwDQYJKoZIhvcNAQENBQADggIBAGOLpdwjgle+9la2avfrOJHDpeH5qUAzesyO
5WpZrCnNCFYSfXD0L9DaExIuSA7VrcYAIaqwmrbAWpyJR+dHHSRWImV1k+OQS4h8
1/ZN/PF7XBA+u5F/EzYVYRB0UVLAvjJYmydLOxAwav+IIRtQ32W41U3xHeZNMB6d
MwLqHYhj9wY6zgxPeCOR2pVAONRZhWN6GbQoxvH2dMO2QuU6d2kQ90mroj45y+8d
XbUz0HxklV6eqpnTGRjpRb9Kke98GQPBwuLJVB3FufbPvjdH/PzgFAtag3jq0ud4
tg+SNWd0klvVzkeMhs8XiNWLq3ea7k6cVX2qK3gjuF1lfmGYQraqDElvWwU8sodG
WxWC8hq+Eh85y+C4H0F0894b+Yx0n8c340RrVNNB94SOj8IK+9YZtQ+7leDjcBWP
/QdimlJ6SkOKlwj4Dr2darWgVXIqXlnEtfmIDLbjVXdG7pPSrHZCF5xGKwMxkKX9
WexIGw9wiHQ4RrgO8eHTLMcKDkAumm/4AGVfFjJWdGAa9uatI976KB9K9OfCjpZn
aTCo5ktQFtGWqiEXeCJs4Xeu3jI1H2/i8VJ6aMXCGy7saL2QwVP6xSHZ8JE1ccKN
OAveL2K9Y79Kp9sXANH6RLvrtgv69fHpQqrvVKGEeOqk1jfg4PSnZbO1aWVr2JB9
NsXwALt+
-----END CERTIFICATE-----
