Certificate:
    Data:
        Version: 1 (0x0)
        Serial Number: 4096 (0x1000)
        Signature Algorithm: sha512WithRSAEncryption
        Issuer: C=ts, ST=ms, L=js, O=jsjs, OU=jsjsj, CN=jshsjhs/emailAddress=ksjksj@hsjsj.com
        Validity
            Not Before: Dec  3 16:00:29 2023 GMT
            Not After : Dec  1 16:00:29 2028 GMT
        Subject: C=US, ST=MyState, L=MyCity, O=MyOrganization, CN=test.test.local
        Subject Public Key Info:
            Public Key Algorithm: rsaEncryption
                Public-Key: (2048 bit)
                Modulus:
                    00:a6:6a:38:78:7b:1c:b3:ee:b7:d7:83:31:19:ec:
                    42:0b:66:5f:f2:4b:5e:1b:e8:00:d1:1c:19:3f:80:
                    01:11:95:f0:ad:3f:38:bb:b6:2f:7b:ea:0a:1b:c9:
                    72:84:30:20:23:34:74:94:be:eb:16:78:03:85:4f:
                    c9:98:12:21:51:c8:75:e5:ba:00:71:89:be:d0:ec:
                    91:3d:81:9c:3a:ea:1c:2d:38:a4:a1:f8:dc:01:89:
                    53:78:f8:d4:40:d7:f5:f8:6d:93:f2:03:33:fa:39:
                    9e:22:8c:0a:18:21:3c:ed:f0:8e:88:fd:e2:52:4e:
                    65:29:6d:57:e2:24:c4:bb:73:8d:3c:85:8e:61:dd:
                    73:c3:cb:15:eb:7d:18:a1:75:3f:66:e8:c9:89:3a:
                    52:5d:f5:b3:06:31:16:7f:28:93:9d:c2:5a:9e:ba:
                    96:a7:e5:6b:b8:9f:ee:99:f3:cc:9a:26:e6:66:17:
                    0c:2e:2c:43:49:41:80:77:da:c4:14:fe:cd:e5:8b:
                    f6:ec:fb:69:2f:65:3d:a4:60:40:36:33:68:5d:e2:
                    cb:7d:9b:aa:5b:ab:31:90:f0:21:d4:9e:0f:48:d1:
                    e5:36:90:fc:af:01:7f:8a:a9:04:f5:80:23:aa:c7:
                    da:8b:39:e0:9e:b0:3c:07:b8:c8:5b:f6:c2:3b:10:
                    f8:d7
                Exponent: 65537 (0x10001)
    Signature Algorithm: sha512WithRSAEncryption
    Signature Value:
        08:9f:57:54:6b:88:66:f6:cd:e5:b1:be:b3:a9:29:4c:d4:7c:
        f7:3d:cb:b8:d8:75:91:6b:7f:3d:38:bd:8d:1e:59:b8:47:36:
        db:39:96:4a:3b:55:e7:39:48:71:44:7d:d8:b4:06:cd:53:5c:
        25:78:32:1e:4d:79:5a:f8:dd:cf:b1:63:0a:63:ae:be:f2:5d:
        f6:d0:f8:d6:20:c7:9f:1a:ce:ae:31:44:90:af:91:e1:2c:9d:
        e7:40:ca:13:bc:1e:aa:5e:be:d3:fc:f8:c8:c5:31:ed:c7:38:
        ac:80:e2:2b:8b:f5:29:3e:8f:2f:9f:2d:9c:67:86:5b:dc:e9:
        88:c5:a4:66:58:da:1a:b6:21:2a:24:55:46:ac:3e:36:a4:ee:
        3b:5f:f1:15:e9:1b:53:c6:37:1c:9b:16:e1:ab:db:8d:61:7d:
        bf:9a:56:e4:11:16:2b:63:66:a9:bd:5a:5c:11:6c:6d:86:cf:
        04:a4:3c:b1:b0:1d:57:c7:b6:61:3c:96:04:6f:f5:e8:c1:57:
        01:a7:13:75:c8:d7:d0:55:65:a1:06:73:fe:cc:6f:b8:24:a4:
        37:4a:dd:ab:a2:63:24:47:8d:cd:3c:02:b8:be:b6:d7:1a:7a:
        f3:ee:45:0e:d0:d5:83:62:5a:50:f0:9f:a6:7b:f0:88:42:9e:
        37:4a:5e:78:f6:f8:cf:42:23:18:a7:7f:04:24:ae:9e:34:a5:
        c8:51:a9:c7:c6:c9:ab:05:04:17:7d:b4:7a:bf:2d:f6:b7:7f:
        59:c0:09:81:30:e4:4b:0b:59:a9:4e:81:af:f9:17:9b:ab:01:
        26:ee:15:bd:30:73:e0:a0:9d:09:86:86:72:3a:af:f4:50:16:
        51:23:2c:09:26:b7:3a:09:06:b3:4c:8e:8c:d3:ce:2b:61:a6:
        4c:92:54:1c:22:83:f6:50:47:66:58:a6:0e:09:57:fc:5b:b6:
        b0:5d:b5:f1:2e:ab:9c:0e:88:a0:70:f1:a3:2b:5f:83:03:d3:
        90:54:fb:34:22:49:2b:b5:93:44:fe:bf:30:a6:9e:40:d9:d4:
        ff:19:a0:38:1b:61:eb:b7:1a:11:10:81:4c:5c:80:5b:5c:01:
        99:b3:3b:eb:62:31:19:01:21:3b:ce:38:6f:b9:17:98:73:88:
        d3:92:41:c8:c5:1e:7a:a8:73:78:59:15:f5:b3:f3:20:7b:24:
        f4:2b:e3:53:4d:01:59:df:6f:87:b2:f4:68:9f:18:54:32:30:
        18:d9:70:7e:14:43:ad:82:76:25:2d:9b:ed:02:71:01:69:d5:
        32:20:e8:17:ca:bd:35:7b:87:d7:ef:38:ba:58:b5:fa:4e:09:
        8d:6c:a3:88:ef:06:23:20
-----BEGIN CERTIFICATE-----
MIIEUTCCAjkCAhAAMA0GCSqGSIb3DQEBDQUAMHkxCzAJBgNVBAYTAnRzMQswCQYD
VQQIDAJtczELMAkGA1UEBwwCanMxDTALBgNVBAoMBGpzanMxDjAMBgNVBAsMBWpz
anNqMRAwDgYDVQQDDAdqc2hzamhzMR8wHQYJKoZIhvcNAQkBFhBrc2prc2pAaHNq
c2ouY29tMB4XDTIzMTIwMzE2MDAyOVoXDTI4MTIwMTE2MDAyOVowYzELMAkGA1UE
BhMCVVMxEDAOBgNVBAgMB015U3RhdGUxDzANBgNVBAcMBk15Q2l0eTEXMBUGA1UE
CgwOTXlPcmdhbml6YXRpb24xGDAWBgNVBAMMD3Rlc3QudGVzdC5sb2NhbDCCASIw
DQYJKoZIhvcNAQEBBQADggEPADCCAQoCggEBAKZqOHh7HLPut9eDMRnsQgtmX/JL
XhvoANEcGT+AARGV8K0/OLu2L3vqChvJcoQwICM0dJS+6xZ4A4VPyZgSIVHIdeW6
AHGJvtDskT2BnDrqHC04pKH43AGJU3j41EDX9fhtk/IDM/o5niKMChghPO3wjoj9
4lJOZSltV+IkxLtzjTyFjmHdc8PLFet9GKF1P2boyYk6Ul31swYxFn8ok53CWp66
lqfla7if7pnzzJom5mYXDC4sQ0lBgHfaxBT+zeWL9uz7aS9lPaRgQDYzaF3iy32b
qlurMZDwIdSeD0jR5TaQ/K8Bf4qpBPWAI6rH2os54J6wPAe4yFv2wjsQ+NcCAwEA
ATANBgkqhkiG9w0BAQ0FAAOCAgEACJ9XVGuIZvbN5bG+s6kpTNR89z3LuNh1kWt/
PTi9jR5ZuEc22zmWSjtV5zlIcUR92LQGzVNcJXgyHk15Wvjdz7FjCmOuvvJd9tD4
1iDHnxrOrjFEkK+R4Syd50DKE7weql6+0/z4yMUx7cc4rIDiK4v1KT6PL58tnGeG
W9zpiMWkZljaGrYhKiRVRqw+NqTuO1/xFekbU8Y3HJsW4avbjWF9v5pW5BEWK2Nm
qb1aXBFsbYbPBKQ8sbAdV8e2YTyWBG/16MFXAacTdcjX0FVloQZz/sxvuCSkN0rd
q6JjJEeNzTwCuL621xp68+5FDtDVg2JaUPCfpnvwiEKeN0peePb4z0IjGKd/BCSu
njSlyFGpx8bJqwUEF320er8t9rd/WcAJgTDkSwtZqU6Br/kXm6sBJu4VvTBz4KCd
CYaGcjqv9FAWUSMsCSa3OgkGs0yOjNPOK2GmTJJUHCKD9lBHZlimDglX/Fu2sF21
8S6rnA6IoHDxoytfgwPTkFT7NCJJK7WTRP6/MKaeQNnU/xmgOBth67caERCBTFyA
W1wBmbM762IxGQEhO844b7kXmHOI05JByMUeeqhzeFkV9bPzIHsk9CvjU00BWd9v
h7L0aJ8YVDIwGNlwfhRDrYJ2JS2b7QJxAWnVMiDoF8q9NXuH1+84uli1+k4JjWyj
iO8GIyA=
-----END CERTIFICATE-----
