Certificate:
    Data:
        Version: 1 (0x0)
        Serial Number: 4098 (0x1002)
        Signature Algorithm: sha512WithRSAEncryption
        Issuer: C=ts, ST=ms, L=js, O=jsjs, OU=jsjsj, CN=jshsjhs/emailAddress=ksjksj@hsjsj.com
        Validity
            Not Before: Dec  3 16:08:07 2023 GMT
            Not After : Dec  1 16:08:07 2028 GMT
        Subject: C=US, ST=MyState, L=MyCity, O=MyOrganization, CN=test3.test.local
        Subject Public Key Info:
            Public Key Algorithm: rsaEncryption
                Public-Key: (2048 bit)
                Modulus:
                    00:92:cd:02:29:f5:9d:ec:38:43:bc:94:4e:d4:4b:
                    ad:b1:5d:03:53:7c:62:12:0f:6c:a3:57:d4:5c:d0:
                    aa:7d:01:55:85:e4:84:9f:48:e6:52:98:17:c2:f3:
                    b8:76:83:a2:46:dc:87:8a:6c:1f:25:b2:20:a3:08:
                    00:a3:ee:87:86:91:c4:c5:3d:a2:b4:94:d1:29:96:
                    d8:41:32:fa:cb:db:cf:a8:23:41:0e:13:30:27:d2:
                    31:26:31:26:e7:00:f7:35:bf:4f:1f:15:48:33:41:
                    a5:0b:05:8f:b1:3a:d9:ba:0b:fb:cf:3a:88:98:72:
                    28:79:ae:ca:d4:a4:a1:27:0e:76:44:4e:7a:9a:ce:
                    16:99:29:9f:25:ff:f8:d4:37:88:b3:14:ea:c9:39:
                    7c:fa:9f:24:44:73:e3:f1:6d:86:ec:ca:0c:d3:24:
                    5a:74:cf:35:63:2a:e2:5d:6d:e8:ce:2c:b9:54:b7:
                    e8:54:43:9e:84:59:38:5a:58:1a:ad:3f:33:66:d7:
                    18:a2:a4:91:54:49:67:8d:fd:71:4e:17:98:58:b8:
                    2a:7a:d6:a8:b0:47:ab:7f:56:05:bb:00:73:31:57:
                    da:3f:40:51:8d:d1:38:8b:64:53:07:79:2c:6c:8c:
                    d4:33:d3:9f:55:bf:33:79:85:38:c5:ed:b4:90:95:
                    b5:31
                Exponent: 65537 (0x10001)
    Signature Algorithm: sha512WithRSAEncryption
    Signature Value:
        2f:33:64:ff:db:f8:b5:cb:0b:2a:b1:33:09:88:74:d5:6f:6e:
        11:26:bc:53:a9:b2:f4:4d:c7:e9:1e:36:63:21:86:e6:4d:bd:
        08:e7:5b:d7:51:e5:56:29:87:6c:56:8c:6d:3e:2e:b4:ce:39:
        b0:b2:34:d5:26:3a:82:ba:63:c8:a3:d8:3e:25:5e:6d:65:a6:
        bb:28:65:75:98:07:bf:72:74:06:a8:1d:b5:24:e1:3c:eb:6e:
        03:57:2b:cd:32:36:28:88:94:45:3d:d5:fb:82:77:4d:09:26:
        2b:e1:15:e9:4b:97:34:bf:ee:22:cd:39:f6:c4:c4:d8:b5:da:
        f7:c2:bf:13:05:29:a1:38:1b:a6:bd:78:98:b9:4d:a9:4f:84:
        a9:35:4f:a8:ef:fb:10:e2:16:39:4a:8d:2d:c3:20:a6:85:07:
        81:dc:bc:d8:10:c9:3b:c3:af:1a:84:df:9f:57:72:02:42:d7:
        08:70:e5:95:c2:ad:69:dd:a4:51:f6:f7:15:0c:b7:c5:b5:7b:
        35:dd:8d:4c:9d:28:35:f4:e5:f2:e3:85:32:85:ef:03:7a:bb:
        ea:89:51:f5:a7:47:b6:02:ed:e6:43:a4:a5:0a:69:11:99:ca:
        af:49:c3:36:6f:16:23:4a:a3:3e:34:0e:e3:ef:ef:fc:2e:b6:
        b8:17:ee:64:60:61:03:f2:74:9c:f4:1d:c0:ae:3e:f7:14:87:
        7e:d8:2c:7d:2e:ab:79:87:b2:f1:68:07:1c:a0:eb:cd:c4:00:
        9d:c7:cb:2f:41:ad:c3:68:6d:f2:69:fa:bf:dd:a4:c7:65:43:
        2b:8c:4a:63:21:a3:4b:59:7d:c8:fc:a0:33:0b:15:2a:f9:93:
        e9:3a:d3:ef:79:41:98:23:9f:35:68:e7:68:91:a1:74:09:8e:
        1f:5b:21:32:32:9f:7c:5c:7c:0b:7c:8f:bd:93:7d:f8:37:5d:
        67:52:36:5a:d8:4d:7e:fe:88:80:90:32:2a:ed:88:a0:12:40:
        4f:dc:34:8b:7a:1d:60:2c:d5:ab:08:55:82:ba:dc:ae:e6:cf:
        6d:20:e6:a6:91:3a:6e:cd:d6:e7:9d:72:75:17:59:1a:d9:a6:
        97:75:af:c9:19:9b:85:51:10:0c:43:17:9b:a2:69:59:c9:65:
        77:0d:82:11:35:3d:c9:a3:3e:97:4f:9d:5f:a1:5f:8b:0e:6d:
        40:b7:a7:01:b2:1e:59:c4:a8:87:28:d7:6f:3b:57:3e:fd:68:
        cb:c4:e8:0c:9a:43:d5:be:2e:4d:b2:73:cf:64:1f:a9:86:26:
        c2:2a:b9:f0:6e:a2:98:f3:bb:11:b7:2e:63:1f:c8:27:78:12:
        1d:95:f2:d1:3a:46:25:f3
-----BEGIN CERTIFICATE-----
MIIEUjCCAjoCAhACMA0GCSqGSIb3DQEBDQUAMHkxCzAJBgNVBAYTAnRzMQswCQYD
VQQIDAJtczELMAkGA1UEBwwCanMxDTALBgNVBAoMBGpzanMxDjAMBgNVBAsMBWpz
anNqMRAwDgYDVQQDDAdqc2hzamhzMR8wHQYJKoZIhvcNAQkBFhBrc2prc2pAaHNq
c2ouY29tMB4XDTIzMTIwMzE2MDgwN1oXDTI4MTIwMTE2MDgwN1owZDELMAkGA1UE
BhMCVVMxEDAOBgNVBAgMB015U3RhdGUxDzANBgNVBAcMBk15Q2l0eTEXMBUGA1UE
CgwOTXlPcmdhbml6YXRpb24xGTAXBgNVBAMMEHRlc3QzLnRlc3QubG9jYWwwggEi
MA0GCSqGSIb3DQEBAQUAA4IBDwAwggEKAoIBAQCSzQIp9Z3sOEO8lE7US62xXQNT
fGISD2yjV9Rc0Kp9AVWF5ISfSOZSmBfC87h2g6JG3IeKbB8lsiCjCACj7oeGkcTF
PaK0lNEplthBMvrL28+oI0EOEzAn0jEmMSbnAPc1v08fFUgzQaULBY+xOtm6C/vP
OoiYcih5rsrUpKEnDnZETnqazhaZKZ8l//jUN4izFOrJOXz6nyREc+PxbYbsygzT
JFp0zzVjKuJdbejOLLlUt+hUQ56EWThaWBqtPzNm1xiipJFUSWeN/XFOF5hYuCp6
1qiwR6t/VgW7AHMxV9o/QFGN0TiLZFMHeSxsjNQz059VvzN5hTjF7bSQlbUxAgMB
AAEwDQYJKoZIhvcNAQENBQADggIBAC8zZP/b+LXLCyqxMwmIdNVvbhEmvFOpsvRN
x+keNmMhhuZNvQjnW9dR5VYph2xWjG0+LrTOObCyNNUmOoK6Y8ij2D4lXm1lprso
ZXWYB79ydAaoHbUk4TzrbgNXK80yNiiIlEU91fuCd00JJivhFelLlzS/7iLNOfbE
xNi12vfCvxMFKaE4G6a9eJi5TalPhKk1T6jv+xDiFjlKjS3DIKaFB4HcvNgQyTvD
rxqE359XcgJC1whw5ZXCrWndpFH29xUMt8W1ezXdjUydKDX05fLjhTKF7wN6u+qJ
UfWnR7YC7eZDpKUKaRGZyq9JwzZvFiNKoz40DuPv7/wutrgX7mRgYQPydJz0HcCu
PvcUh37YLH0uq3mHsvFoBxyg683EAJ3Hyy9BrcNobfJp+r/dpMdlQyuMSmMho0tZ
fcj8oDMLFSr5k+k60+95QZgjnzVo52iRoXQJjh9bITIyn3xcfAt8j72Tffg3XWdS
NlrYTX7+iICQMirtiKASQE/cNIt6HWAs1asIVYK63K7mz20g5qaROm7N1uedcnUX
WRrZppd1r8kZm4VREAxDF5uiaVnJZXcNghE1PcmjPpdPnV+hX4sObUC3pwGyHlnE
qIco1287Vz79aMvE6AyaQ9W+Lk2yc89kH6mGJsIqufBuopjzuxG3LmMfyCd4Eh2V
8tE6RiXz
-----END CERTIFICATE-----
